target datalayout = "e-m:e-p270:32:32-p271:32:32-p272:64:64-i64:64-i128:128-f80:128-n8:16:32:64-S128"
target triple = "x86_64-unknown-linux-gnu"

%struct.CPUArchState = type { [32 x i64], [32 x i64], [512 x i64], i64, i64, i64, i64, i64, i8, i64, i64, i64, [32 x i64], i64, %struct.float_status, i64, i64, i64, i64, i64, i64, i32, i32, i32, i32, i32, i64, i64, i64, i8, i64, i64, i64, i64, i64, i8, i8, i64, i64, i64, i64, i64, i64, i64, i64, i64, i64, i64, i64, i64, i64, i64, [64 x i8], [64 x i8], i64, i64, i64, i64, i64, i64, i64, i64, i64, i64, i64, i64, i64, i64, i64, i64, i64, [64 x i8], i64, i64, i64, i64, i64, i64, i64, i64, i64, i64, i64, i64, i64, i64, i64, i64, i64, i64, i64, i8, i8, i64, i64, i64, [32 x %struct.PMUCTRState], [32 x i64], [32 x i64], i64, i64, i64, i64, %struct.pmp_table_t, i64, i64, [2 x i64], [2 x i64], [2 x i64], [2 x ptr], [2 x ptr], [2 x ptr], i64, i8, ptr, ptr, [4 x ptr], [4 x ptr], i8, i64, i64, i64, i64, i64, i64, i64, i64, [4 x i64], [4 x i64], [4 x i64], i64, i64, i64, i64, ptr, ptr, i8, i64, i64, [8 x i8] }
%struct.float_status = type { i16, i8, i8, i8, i8, i8, i8, i8, i8, i8, i8, i8 }
%struct.PMUCTRState = type { i64, i64, i64, i64, i8, i64 }
%struct.pmp_table_t = type { [16 x %struct.pmp_entry_t], [16 x %struct.pmp_addr_t], i32 }
%struct.pmp_entry_t = type { i64, i8 }
%struct.pmp_addr_t = type { i64, i64 }
%struct.ArchCPU = type { %struct.CPUState, %struct.CPUArchState, ptr, ptr, %struct.RISCVCPUConfig, ptr, i32, ptr, [8 x i8] }
%struct.CPUState = type { %struct.DeviceState, ptr, i32, i32, ptr, i32, i8, i8, ptr, i8, i8, i8, i8, i8, i8, i8, i8, i32, i32, i32, i32, i64, i64, i64, [1 x %struct.__jmp_buf_tag], %struct.QemuMutex, %struct.anon, ptr, i32, ptr, ptr, ptr, ptr, i32, i32, %union.anon, %union.anon.0, %union.anon.1, ptr, ptr, i64, i32, ptr, ptr, ptr, i32, i64, i32, %struct.QemuLockCnt, [1 x i64], ptr, i32, i32, i32, i32, i32, ptr, i8, i8, i64, i8, i8, ptr, [8 x i8], [0 x i8], %struct.CPUNegativeOffsetState }
%struct.DeviceState = type { %struct.Object, ptr, ptr, i8, i8, i64, ptr, i32, i8, ptr, %struct.NamedGPIOListHead, %struct.NamedClockListHead, %struct.BusStateHead, i32, i32, i32, %struct.ResettableState, ptr, %struct.MemReentrancyGuard }
%struct.Object = type { ptr, ptr, ptr, i32, ptr }
%struct.NamedGPIOListHead = type { ptr }
%struct.NamedClockListHead = type { ptr }
%struct.BusStateHead = type { ptr }
%struct.ResettableState = type { i32, i8, i8 }
%struct.MemReentrancyGuard = type { i8 }
%struct.__jmp_buf_tag = type { [8 x i64], i32, %struct.__sigset_t }
%struct.__sigset_t = type { [16 x i64] }
%struct.QemuMutex = type { %union.pthread_mutex_t, i8 }
%union.pthread_mutex_t = type { %struct.__pthread_mutex_s }
%struct.__pthread_mutex_s = type { i32, i32, i32, i32, i32, i16, i16, %struct.__pthread_internal_list }
%struct.__pthread_internal_list = type { ptr, ptr }
%struct.anon = type { ptr, ptr }
%union.anon = type { %struct.QTailQLink }
%struct.QTailQLink = type { ptr, ptr }
%union.anon.0 = type { %struct.QTailQLink }
%union.anon.1 = type { %struct.QTailQLink }
%struct.QemuLockCnt = type { i32 }
%struct.CPUNegativeOffsetState = type { %struct.CPUTLB, %union.IcountDecr, i8, [11 x i8] }
%struct.CPUTLB = type { %struct.CPUTLBCommon, [16 x %struct.CPUTLBDesc], [16 x %struct.CPUTLBDescFast] }
%struct.CPUTLBCommon = type { %struct.QemuSpin, i16, i64, i64, i64 }
%struct.QemuSpin = type { i32 }
%struct.CPUTLBDesc = type { i64, i64, i64, i64, i64, i64, [8 x %union.CPUTLBEntry], [8 x %struct.CPUTLBEntryFull], ptr }
%union.CPUTLBEntry = type { %struct.anon.2 }
%struct.anon.2 = type { i64, i64, i64, i64 }
%struct.CPUTLBEntryFull = type { i64, i64, %struct.MemTxAttrs, i8, i8, [3 x i8], %union.anon.3 }
%struct.MemTxAttrs = type { i32 }
%union.anon.3 = type { %struct.anon.4 }
%struct.anon.4 = type { i8, i8, i8 }
%struct.CPUTLBDescFast = type { i64, ptr }
%union.IcountDecr = type { i32 }
%struct.RISCVCPUConfig = type { i8, i8, i8, i8, i8, i8, i8, i8, i8, i8, i8, i8, i8, i8, i8, i8, i8, i8, i8, i8, i8, i8, i8, i8, i8, i8, i8, i8, i8, i8, i8, i8, i8, i8, i8, i8, i8, i8, i8, i8, i8, i8, i8, i8, i8, i8, i8, i8, i8, i8, i8, i8, i8, i8, i8, i8, i8, i8, i8, i8, i8, i8, i8, i8, i8, i8, i8, i8, i8, i8, i8, i8, i8, i8, i8, i8, i8, i8, i32, i64, i64, i8, i8, i8, i8, i8, i8, i8, i8, i8, i8, i8, i8, i32, ptr, ptr, ptr, ptr, i16, i16, i16, i16, i8, i8, i8, i8, i8, %struct.RISCVSATPMap }
%struct.RISCVSATPMap = type { i16, i16, i16 }
%struct.CPUWatchpoint = type { i64, i64, i64, %struct.MemTxAttrs, i32, %union.anon.6 }
%union.anon.6 = type { %struct.QTailQLink }

@.str = private unnamed_addr constant [29 x i8] c"../qemu/target/riscv/debug.c\00", align 1
@__func__.extract_trigger_type = private unnamed_addr constant [21 x i8] c"extract_trigger_type\00", align 1
@.str.4 = private unnamed_addr constant [49 x i8] c"start >= 0 && length > 0 && length <= 32 - start\00", align 1
@.str.5 = private unnamed_addr constant [100 x i8] c"/home/dtcxzyw/WorkSpace/Projects/compilers/llvm-opt-benchmark/bench/qemu/qemu/include/qemu/bitops.h\00", align 1
@__PRETTY_FUNCTION__.extract32 = private unnamed_addr constant [39 x i8] c"uint32_t extract32(uint32_t, int, int)\00", align 1
@.str.6 = private unnamed_addr constant [49 x i8] c"start >= 0 && length > 0 && length <= 64 - start\00", align 1
@__PRETTY_FUNCTION__.extract64 = private unnamed_addr constant [39 x i8] c"uint64_t extract64(uint64_t, int, int)\00", align 1
@.str.22 = private unnamed_addr constant [10 x i8] c"riscv-cpu\00", align 1
@.str.23 = private unnamed_addr constant [31 x i8] c"../qemu/target/riscv/cpu-qom.h\00", align 1
@__func__.RISCV_CPU = private unnamed_addr constant [10 x i8] c"RISCV_CPU\00", align 1

; Function Attrs: nounwind sspstrong uwtable
define internal i64 @extract64(i64 noundef %value, i32 noundef %start, i32 noundef %length) #0 {
entry:
  %value.addr = alloca i64, align 8
  %start.addr = alloca i32, align 4
  %length.addr = alloca i32, align 4
  store i64 %value, ptr %value.addr, align 8
  store i32 %start, ptr %start.addr, align 4
  store i32 %length, ptr %length.addr, align 4
  %0 = load i32, ptr %start.addr, align 4
  %cmp = icmp sge i32 %0, 0
  br i1 %cmp, label %land.lhs.true, label %if.else

land.lhs.true:                                    ; preds = %entry
  %1 = load i32, ptr %length.addr, align 4
  %cmp1 = icmp sgt i32 %1, 0
  br i1 %cmp1, label %land.lhs.true2, label %if.else

land.lhs.true2:                                   ; preds = %land.lhs.true
  %2 = load i32, ptr %length.addr, align 4
  %3 = load i32, ptr %start.addr, align 4
  %sub = sub i32 64, %3
  %cmp3 = icmp sle i32 %2, %sub
  br i1 %cmp3, label %if.then, label %if.else

if.then:                                          ; preds = %land.lhs.true2
  br label %if.end

if.else:                                          ; preds = %land.lhs.true2, %land.lhs.true, %entry
  call void @__assert_fail(ptr noundef @.str.6, ptr noundef @.str.5, i32 noundef 395, ptr noundef @__PRETTY_FUNCTION__.extract64) #6
  unreachable

if.end:                                           ; preds = %if.then
  %4 = load i64, ptr %value.addr, align 8
  %5 = load i32, ptr %start.addr, align 4
  %sh_prom = zext i32 %5 to i64
  %shr = lshr i64 %4, %sh_prom
  %6 = load i32, ptr %length.addr, align 4
  %sub4 = sub i32 64, %6
  %sh_prom5 = zext i32 %sub4 to i64
  %shr6 = lshr i64 -1, %sh_prom5
  %and = and i64 %shr, %shr6
  ret i64 %and
}

; Function Attrs: nounwind sspstrong uwtable
define internal i32 @extract32(i32 noundef %value, i32 noundef %start, i32 noundef %length) #0 {
entry:
  %value.addr = alloca i32, align 4
  %start.addr = alloca i32, align 4
  %length.addr = alloca i32, align 4
  store i32 %value, ptr %value.addr, align 4
  store i32 %start, ptr %start.addr, align 4
  store i32 %length, ptr %length.addr, align 4
  %0 = load i32, ptr %start.addr, align 4
  %cmp = icmp sge i32 %0, 0
  br i1 %cmp, label %land.lhs.true, label %if.else

land.lhs.true:                                    ; preds = %entry
  %1 = load i32, ptr %length.addr, align 4
  %cmp1 = icmp sgt i32 %1, 0
  br i1 %cmp1, label %land.lhs.true2, label %if.else

land.lhs.true2:                                   ; preds = %land.lhs.true
  %2 = load i32, ptr %length.addr, align 4
  %3 = load i32, ptr %start.addr, align 4
  %sub = sub i32 32, %3
  %cmp3 = icmp sle i32 %2, %sub
  br i1 %cmp3, label %if.then, label %if.else

if.then:                                          ; preds = %land.lhs.true2
  br label %if.end

if.else:                                          ; preds = %land.lhs.true2, %land.lhs.true, %entry
  call void @__assert_fail(ptr noundef @.str.4, ptr noundef @.str.5, i32 noundef 338, ptr noundef @__PRETTY_FUNCTION__.extract32) #6
  unreachable

if.end:                                           ; preds = %if.then
  %4 = load i32, ptr %value.addr, align 4
  %5 = load i32, ptr %start.addr, align 4
  %shr = lshr i32 %4, %5
  %6 = load i32, ptr %length.addr, align 4
  %sub4 = sub i32 32, %6
  %shr5 = lshr i32 -1, %sub4
  %and = and i32 %shr, %shr5
  ret i32 %and
}

; Function Attrs: nounwind sspstrong uwtable
define internal i32 @riscv_cpu_mxl(ptr noundef %env) #0 {
entry:
  %env.addr = alloca ptr, align 8
  store ptr %env, ptr %env.addr, align 8
  %0 = load ptr, ptr %env.addr, align 8
  %misa_mxl = getelementptr inbounds %struct.CPUArchState, ptr %0, i32 0, i32 21
  %1 = load i32, ptr %misa_mxl, align 16
  ret i32 %1
}

; Function Attrs: nounwind sspstrong uwtable
define internal i64 @extract_trigger_type(ptr noundef %env, i64 noundef %tdata1) #0 {
entry:
  %retval = alloca i64, align 8
  %env.addr = alloca ptr, align 8
  %tdata1.addr = alloca i64, align 8
  store ptr %env, ptr %env.addr, align 8
  store i64 %tdata1, ptr %tdata1.addr, align 8
  %0 = load ptr, ptr %env.addr, align 8
  %call = call i32 @riscv_cpu_mxl(ptr noundef %0)
  switch i32 %call, label %sw.default [
    i32 1, label %sw.bb
    i32 2, label %sw.bb3
    i32 3, label %sw.bb3
  ]

sw.bb:                                            ; preds = %entry
  %1 = load i64, ptr %tdata1.addr, align 8
  %conv = trunc i64 %1 to i32
  %call1 = call i32 @extract32(i32 noundef %conv, i32 noundef 28, i32 noundef 4)
  %conv2 = zext i32 %call1 to i64
  store i64 %conv2, ptr %retval, align 8
  br label %sw.epilog

sw.bb3:                                           ; preds = %entry, %entry
  %2 = load i64, ptr %tdata1.addr, align 8
  %call4 = call i64 @extract64(i64 noundef %2, i32 noundef 60, i32 noundef 4)
  store i64 %call4, ptr %retval, align 8
  br label %sw.epilog

sw.default:                                       ; preds = %entry
  br label %do.body

do.body:                                          ; preds = %sw.default
  call void @g_assertion_message_expr(ptr noundef null, ptr noundef @.str, i32 noundef 87, ptr noundef @__func__.extract_trigger_type, ptr noundef null) #5
  unreachable

do.end:                                           ; No predecessors!
  br label %sw.epilog

sw.epilog:                                        ; preds = %do.end, %sw.bb3, %sw.bb
  %3 = load i64, ptr %retval, align 8
  ret i64 %3
}

; Function Attrs: nounwind sspstrong uwtable
define internal i64 @get_trigger_type(ptr noundef %env, i64 noundef %trigger_index) #0 {
entry:
  %env.addr = alloca ptr, align 8
  %trigger_index.addr = alloca i64, align 8
  store ptr %env, ptr %env.addr, align 8
  store i64 %trigger_index, ptr %trigger_index.addr, align 8
  %0 = load ptr, ptr %env.addr, align 8
  %1 = load ptr, ptr %env.addr, align 8
  %tdata1 = getelementptr inbounds %struct.CPUArchState, ptr %1, i32 0, i32 106
  %2 = load i64, ptr %trigger_index.addr, align 8
  %arrayidx = getelementptr [2 x i64], ptr %tdata1, i64 0, i64 %2
  %3 = load i64, ptr %arrayidx, align 8
  %call = call i64 @extract_trigger_type(ptr noundef %0, i64 noundef %3)
  ret i64 %call
}

; Function Attrs: nounwind sspstrong uwtable
define internal ptr @RISCV_CPU(ptr noundef %obj) #0 {
entry:
  %obj.addr = alloca ptr, align 8
  store ptr %obj, ptr %obj.addr, align 8
  %0 = load ptr, ptr %obj.addr, align 8
  %call = call ptr @object_dynamic_cast_assert(ptr noundef %0, ptr noundef @.str.22, ptr noundef @.str.23, i32 noundef 46, ptr noundef @__func__.RISCV_CPU)
  ret ptr %call
}

; Function Attrs: nounwind sspstrong uwtable
define dso_local zeroext i1 @riscv_cpu_debug_check_watchpoint(ptr noundef %cs, ptr noundef %wp) #0 {
entry:
  %retval = alloca i1, align 1
  %cs.addr = alloca ptr, align 8
  %wp.addr = alloca ptr, align 8
  %cpu = alloca ptr, align 8
  %env = alloca ptr, align 8
  %ctrl = alloca i64, align 8
  %addr = alloca i64, align 8
  %trigger_type = alloca i32, align 4
  %flags = alloca i32, align 4
  %i = alloca i32, align 4
  store ptr %cs, ptr %cs.addr, align 8
  store ptr %wp, ptr %wp.addr, align 8
  %0 = load ptr, ptr %cs.addr, align 8
  %call = call ptr @RISCV_CPU(ptr noundef %0)
  store ptr %call, ptr %cpu, align 8
  %1 = load ptr, ptr %cpu, align 8
  %env1 = getelementptr inbounds %struct.ArchCPU, ptr %1, i32 0, i32 1
  store ptr %env1, ptr %env, align 8
  store i32 0, ptr %i, align 4
  br label %for.cond

for.cond:                                         ; preds = %for.inc, %entry
  %2 = load i32, ptr %i, align 4
  %cmp = icmp slt i32 %2, 2
  br i1 %cmp, label %for.body, label %for.end

for.body:                                         ; preds = %for.cond
  %3 = load ptr, ptr %env, align 8
  %4 = load i32, ptr %i, align 4
  %conv = sext i32 %4 to i64
  %call2 = call i64 @get_trigger_type(ptr noundef %3, i64 noundef %conv)
  %conv3 = trunc i64 %call2 to i32
  store i32 %conv3, ptr %trigger_type, align 4
  %5 = load i32, ptr %trigger_type, align 4
  switch i32 %5, label %sw.default [
    i32 2, label %sw.bb
    i32 6, label %sw.bb25
  ]

sw.bb:                                            ; preds = %for.body
  %6 = load ptr, ptr %env, align 8
  %virt_enabled = getelementptr inbounds %struct.CPUArchState, ptr %6, i32 0, i32 29
  %7 = load i8, ptr %virt_enabled, align 16
  %tobool = trunc i8 %7 to i1
  br i1 %tobool, label %if.then, label %if.end

if.then:                                          ; preds = %sw.bb
  store i1 false, ptr %retval, align 1
  br label %return

if.end:                                           ; preds = %sw.bb
  %8 = load ptr, ptr %env, align 8
  %tdata1 = getelementptr inbounds %struct.CPUArchState, ptr %8, i32 0, i32 106
  %9 = load i32, ptr %i, align 4
  %idxprom = sext i32 %9 to i64
  %arrayidx = getelementptr [2 x i64], ptr %tdata1, i64 0, i64 %idxprom
  %10 = load i64, ptr %arrayidx, align 8
  store i64 %10, ptr %ctrl, align 8
  %11 = load ptr, ptr %env, align 8
  %tdata2 = getelementptr inbounds %struct.CPUArchState, ptr %11, i32 0, i32 107
  %12 = load i32, ptr %i, align 4
  %idxprom4 = sext i32 %12 to i64
  %arrayidx5 = getelementptr [2 x i64], ptr %tdata2, i64 0, i64 %idxprom4
  %13 = load i64, ptr %arrayidx5, align 8
  store i64 %13, ptr %addr, align 8
  store i32 0, ptr %flags, align 4
  %14 = load i64, ptr %ctrl, align 8
  %and = and i64 %14, 1
  %tobool6 = icmp ne i64 %and, 0
  br i1 %tobool6, label %if.then7, label %if.end8

if.then7:                                         ; preds = %if.end
  %15 = load i32, ptr %flags, align 4
  %or = or i32 %15, 1
  store i32 %or, ptr %flags, align 4
  br label %if.end8

if.end8:                                          ; preds = %if.then7, %if.end
  %16 = load i64, ptr %ctrl, align 8
  %and9 = and i64 %16, 2
  %tobool10 = icmp ne i64 %and9, 0
  br i1 %tobool10, label %if.then11, label %if.end13

if.then11:                                        ; preds = %if.end8
  %17 = load i32, ptr %flags, align 4
  %or12 = or i32 %17, 2
  store i32 %or12, ptr %flags, align 4
  br label %if.end13

if.end13:                                         ; preds = %if.then11, %if.end8
  %18 = load ptr, ptr %wp.addr, align 8
  %flags14 = getelementptr inbounds %struct.CPUWatchpoint, ptr %18, i32 0, i32 4
  %19 = load i32, ptr %flags14, align 4
  %20 = load i32, ptr %flags, align 4
  %and15 = and i32 %19, %20
  %tobool16 = icmp ne i32 %and15, 0
  br i1 %tobool16, label %land.lhs.true, label %if.end24

land.lhs.true:                                    ; preds = %if.end13
  %21 = load ptr, ptr %wp.addr, align 8
  %vaddr = getelementptr inbounds %struct.CPUWatchpoint, ptr %21, i32 0, i32 0
  %22 = load i64, ptr %vaddr, align 8
  %23 = load i64, ptr %addr, align 8
  %cmp17 = icmp eq i64 %22, %23
  br i1 %cmp17, label %if.then19, label %if.end24

if.then19:                                        ; preds = %land.lhs.true
  %24 = load i64, ptr %ctrl, align 8
  %shr = lshr i64 %24, 3
  %25 = load ptr, ptr %env, align 8
  %priv = getelementptr inbounds %struct.CPUArchState, ptr %25, i32 0, i32 28
  %26 = load i64, ptr %priv, align 8
  %shl = shl i64 1, %26
  %and20 = and i64 %shr, %shl
  %tobool21 = icmp ne i64 %and20, 0
  br i1 %tobool21, label %if.then22, label %if.end23

if.then22:                                        ; preds = %if.then19
  store i1 true, ptr %retval, align 1
  br label %return

if.end23:                                         ; preds = %if.then19
  br label %if.end24

if.end24:                                         ; preds = %if.end23, %land.lhs.true, %if.end13
  br label %sw.epilog

sw.bb25:                                          ; preds = %for.body
  %27 = load ptr, ptr %env, align 8
  %tdata126 = getelementptr inbounds %struct.CPUArchState, ptr %27, i32 0, i32 106
  %28 = load i32, ptr %i, align 4
  %idxprom27 = sext i32 %28 to i64
  %arrayidx28 = getelementptr [2 x i64], ptr %tdata126, i64 0, i64 %idxprom27
  %29 = load i64, ptr %arrayidx28, align 8
  store i64 %29, ptr %ctrl, align 8
  %30 = load ptr, ptr %env, align 8
  %tdata229 = getelementptr inbounds %struct.CPUArchState, ptr %30, i32 0, i32 107
  %31 = load i32, ptr %i, align 4
  %idxprom30 = sext i32 %31 to i64
  %arrayidx31 = getelementptr [2 x i64], ptr %tdata229, i64 0, i64 %idxprom30
  %32 = load i64, ptr %arrayidx31, align 8
  store i64 %32, ptr %addr, align 8
  store i32 0, ptr %flags, align 4
  %33 = load i64, ptr %ctrl, align 8
  %and32 = and i64 %33, 1
  %tobool33 = icmp ne i64 %and32, 0
  br i1 %tobool33, label %if.then34, label %if.end36

if.then34:                                        ; preds = %sw.bb25
  %34 = load i32, ptr %flags, align 4
  %or35 = or i32 %34, 1
  store i32 %or35, ptr %flags, align 4
  br label %if.end36

if.end36:                                         ; preds = %if.then34, %sw.bb25
  %35 = load i64, ptr %ctrl, align 8
  %and37 = and i64 %35, 2
  %tobool38 = icmp ne i64 %and37, 0
  br i1 %tobool38, label %if.then39, label %if.end41

if.then39:                                        ; preds = %if.end36
  %36 = load i32, ptr %flags, align 4
  %or40 = or i32 %36, 2
  store i32 %or40, ptr %flags, align 4
  br label %if.end41

if.end41:                                         ; preds = %if.then39, %if.end36
  %37 = load ptr, ptr %wp.addr, align 8
  %flags42 = getelementptr inbounds %struct.CPUWatchpoint, ptr %37, i32 0, i32 4
  %38 = load i32, ptr %flags42, align 4
  %39 = load i32, ptr %flags, align 4
  %and43 = and i32 %38, %39
  %tobool44 = icmp ne i32 %and43, 0
  br i1 %tobool44, label %land.lhs.true45, label %if.end68

land.lhs.true45:                                  ; preds = %if.end41
  %40 = load ptr, ptr %wp.addr, align 8
  %vaddr46 = getelementptr inbounds %struct.CPUWatchpoint, ptr %40, i32 0, i32 0
  %41 = load i64, ptr %vaddr46, align 8
  %42 = load i64, ptr %addr, align 8
  %cmp47 = icmp eq i64 %41, %42
  br i1 %cmp47, label %if.then49, label %if.end68

if.then49:                                        ; preds = %land.lhs.true45
  %43 = load ptr, ptr %env, align 8
  %virt_enabled50 = getelementptr inbounds %struct.CPUArchState, ptr %43, i32 0, i32 29
  %44 = load i8, ptr %virt_enabled50, align 16
  %tobool51 = trunc i8 %44 to i1
  br i1 %tobool51, label %if.then52, label %if.else

if.then52:                                        ; preds = %if.then49
  %45 = load i64, ptr %ctrl, align 8
  %shr53 = lshr i64 %45, 23
  %46 = load ptr, ptr %env, align 8
  %priv54 = getelementptr inbounds %struct.CPUArchState, ptr %46, i32 0, i32 28
  %47 = load i64, ptr %priv54, align 8
  %shl55 = shl i64 1, %47
  %and56 = and i64 %shr53, %shl55
  %tobool57 = icmp ne i64 %and56, 0
  br i1 %tobool57, label %if.then58, label %if.end59

if.then58:                                        ; preds = %if.then52
  store i1 true, ptr %retval, align 1
  br label %return

if.end59:                                         ; preds = %if.then52
  br label %if.end67

if.else:                                          ; preds = %if.then49
  %48 = load i64, ptr %ctrl, align 8
  %shr60 = lshr i64 %48, 3
  %49 = load ptr, ptr %env, align 8
  %priv61 = getelementptr inbounds %struct.CPUArchState, ptr %49, i32 0, i32 28
  %50 = load i64, ptr %priv61, align 8
  %shl62 = shl i64 1, %50
  %and63 = and i64 %shr60, %shl62
  %tobool64 = icmp ne i64 %and63, 0
  br i1 %tobool64, label %if.then65, label %if.end66

if.then65:                                        ; preds = %if.else
  store i1 true, ptr %retval, align 1
  br label %return

if.end66:                                         ; preds = %if.else
  br label %if.end67

if.end67:                                         ; preds = %if.end66, %if.end59
  br label %if.end68

if.end68:                                         ; preds = %if.end67, %land.lhs.true45, %if.end41
  br label %sw.epilog

sw.default:                                       ; preds = %for.body
  br label %sw.epilog

sw.epilog:                                        ; preds = %sw.default, %if.end68, %if.end24
  br label %for.inc

for.inc:                                          ; preds = %sw.epilog
  %51 = load i32, ptr %i, align 4
  %inc = add i32 %51, 1
  store i32 %inc, ptr %i, align 4
  br label %for.cond, !llvm.loop !12

for.end:                                          ; preds = %for.cond
  store i1 false, ptr %retval, align 1
  br label %return

return:                                           ; preds = %for.end, %if.then65, %if.then58, %if.then22, %if.then
  %52 = load i1, ptr %retval, align 1
  ret i1 %52
}