; Function Attrs: nounwind sspstrong uwtable
define dso_local noundef zeroext i1 @riscv_cpu_debug_check_watchpoint(ptr noundef %cs, ptr noundef readonly captures(none) %wp) local_unnamed_addr #0 {
entry:
  %call.i = tail call ptr @object_dynamic_cast_assert(ptr noundef %cs, ptr noundef nonnull @.str.22, ptr noundef nonnull @.str.23, i32 noundef 46, ptr noundef nonnull @__func__.RISCV_CPU) #8
  %tdata1.i = getelementptr inbounds nuw i8, ptr %call.i, i64 18536
  %0 = getelementptr i8, ptr %call.i, i64 15184
  %env.val.i = load i32, ptr %0, align 16
  %flags42 = getelementptr inbounds nuw i8, ptr %wp, i64 28
  %tdata229 = getelementptr inbounds nuw i8, ptr %call.i, i64 18552
  %virt_enabled50 = getelementptr inbounds nuw i8, ptr %call.i, i64 15232
  %priv61 = getelementptr inbounds nuw i8, ptr %call.i, i64 15224
  %env.val.i.off = add i32 %env.val.i, -1
  %switch = icmp ult i32 %env.val.i.off, 3
  br i1 %switch, label %for.body.preheader, label %do.body.i.i

for.body.preheader:                               ; preds = %entry
  %cond = icmp eq i32 %env.val.i, 1
  br label %for.body

for.body:                                         ; preds = %for.body.backedge, %for.body.preheader
  %cmp = phi i1 [ true, %for.body.preheader ], [ false, %for.body.backedge ]
  %indvars.iv = phi i64 [ 0, %for.body.preheader ], [ 1, %for.body.backedge ]
  %arrayidx.i = getelementptr [2 x i64], ptr %tdata1.i, i64 0, i64 %indvars.iv
  %1 = load i64, ptr %arrayidx.i, align 8
  %shr.i2.i.i = lshr i64 %1, 60
  %shr.i.i.i = lshr i64 %1, 28
  %conv2.i.i = and i64 %shr.i.i.i, 15
  %retval.0.i.i = select i1 %cond, i64 %conv2.i.i, i64 %shr.i2.i.i
  %conv3 = trunc nuw nsw i64 %retval.0.i.i to i32
  switch i32 %conv3, label %for.inc [
    i32 2, label %sw.bb
    i32 6, label %sw.bb25
  ]

do.body.i.i:                                      ; preds = %entry
  tail call void @g_assertion_message_expr(ptr noundef null, ptr noundef nonnull @.str, i32 noundef 87, ptr noundef nonnull @__func__.extract_trigger_type, ptr noundef null) #7
  unreachable

sw.bb:                                            ; preds = %for.body
  %2 = load i8, ptr %virt_enabled50, align 16
  %tobool = trunc i8 %2 to i1
  br i1 %tobool, label %return, label %if.end

if.end:                                           ; preds = %sw.bb
  %3 = trunc i64 %1 to i32
  %flags.1 = and i32 %3, 3
  %4 = load i32, ptr %flags42, align 4
  %and15 = and i32 %flags.1, %4
  %tobool16.not = icmp eq i32 %and15, 0
  br i1 %tobool16.not, label %for.inc, label %land.lhs.true

land.lhs.true:                                    ; preds = %if.end
  %arrayidx5 = getelementptr [2 x i64], ptr %tdata229, i64 0, i64 %indvars.iv
  %5 = load i64, ptr %arrayidx5, align 8
  %6 = load i64, ptr %wp, align 8
  %cmp17 = icmp eq i64 %6, %5
  br i1 %cmp17, label %if.then19, label %for.inc

if.then19:                                        ; preds = %land.lhs.true
  %shr = lshr i64 %1, 3
  %7 = load i64, ptr %priv61, align 8
  %shl = shl nuw i64 1, %7
  %and20 = and i64 %shl, %shr
  %tobool21.not = icmp ne i64 %and20, 0
  %cmp.not = xor i1 %cmp, true
  %brmerge = or i1 %tobool21.not, %cmp.not
  br i1 %brmerge, label %return, label %for.body.backedge

sw.bb25:                                          ; preds = %for.body
  %8 = trunc i64 %1 to i32
  %flags.3 = and i32 %8, 3
  %9 = load i32, ptr %flags42, align 4
  %and43 = and i32 %flags.3, %9
  %tobool44.not = icmp eq i32 %and43, 0
  br i1 %tobool44.not, label %for.inc, label %land.lhs.true45

land.lhs.true45:                                  ; preds = %sw.bb25
  %arrayidx31 = getelementptr [2 x i64], ptr %tdata229, i64 0, i64 %indvars.iv
  %10 = load i64, ptr %arrayidx31, align 8
  %11 = load i64, ptr %wp, align 8
  %cmp47 = icmp eq i64 %11, %10
  br i1 %cmp47, label %if.then49, label %for.inc

if.then49:                                        ; preds = %land.lhs.true45
  %12 = load i8, ptr %virt_enabled50, align 16
  %tobool51 = trunc i8 %12 to i1
  %13 = load i64, ptr %priv61, align 8
  %shl55 = shl nuw i64 1, %13
  %cmp.not34 = xor i1 %cmp, true
  br i1 %tobool51, label %if.then52, label %if.else

if.then52:                                        ; preds = %if.then49
  %shr53 = lshr i64 %1, 23
  %and56 = and i64 %shl55, %shr53
  %tobool57.not = icmp ne i64 %and56, 0
  %brmerge35 = or i1 %tobool57.not, %cmp.not34
  br i1 %brmerge35, label %return, label %for.body.backedge

if.else:                                          ; preds = %if.then49
  %shr60 = lshr i64 %1, 3
  %and63 = and i64 %shl55, %shr60
  %tobool64.not = icmp ne i64 %and63, 0
  %brmerge38 = or i1 %tobool64.not, %cmp.not34
  br i1 %brmerge38, label %return, label %for.body.backedge

for.inc:                                          ; preds = %land.lhs.true, %if.end, %land.lhs.true45, %sw.bb25, %for.body
  br i1 %cmp, label %for.body.backedge, label %return

for.body.backedge:                                ; preds = %for.inc, %if.then19, %if.then52, %if.else
  br label %for.body, !llvm.loop !12

return:                                           ; preds = %if.else, %if.then52, %if.then19, %for.inc, %sw.bb
  %retval.0 = phi i1 [ false, %sw.bb ], [ %tobool21.not, %if.then19 ], [ %tobool57.not, %if.then52 ], [ %tobool64.not, %if.else ], [ false, %for.inc ]
  ret i1 %retval.0
}